target datalayout = "e-m:e-p270:32:32-p271:32:32-p272:64:64-i64:64-i128:128-f80:128-n8:16:32:64-S128"
target triple = "x86_64-pc-linux-gnu"

%class.SamplePriorityQueue = type { ptr, i64, i32, i64 }
%class.ObjectSample = type <{ ptr, ptr, %class.RefCountHandle, %class.RefCountHandle, %class.RefCountHandle, %class.WeakHandle, %class.TimeInstant, i64, i64, i64, i64, i64, i64, i32, i8, [3 x i8] }>
%class.RefCountHandle = type { ptr }
%class.WeakHandle = type { ptr }
%class.TimeInstant = type { %class.CompositeCounterRepresentation }
%class.CompositeCounterRepresentation = type { %class.Representation }
%class.Representation = type { %class.PairRep }
%class.PairRep = type { i64, i64 }

; Function Attrs: mustprogress nounwind uwtable
define linkonce_odr hidden void @_ZN12ObjectSample9set_indexEi(ptr noundef nonnull align 8 dereferenceable(117) %0, i32 noundef %1) #1 comdat align 2 {
  %3 = alloca ptr, align 8
  %4 = alloca i32, align 4
  store ptr %0, ptr %3, align 8
  store i32 %1, ptr %4, align 4
  %5 = load ptr, ptr %3, align 8
  %6 = load i32, ptr %4, align 4
  %7 = getelementptr inbounds %class.ObjectSample, ptr %5, i32 0, i32 13
  store i32 %6, ptr %7, align 8
  ret void
}

; Function Attrs: mustprogress nounwind uwtable
define hidden void @_ZN19SamplePriorityQueue4swapEii(ptr noundef nonnull align 8 dereferenceable(32) %0, i32 noundef %1, i32 noundef %2) #1 align 2 {
  %4 = alloca ptr, align 8
  %5 = alloca i32, align 4
  %6 = alloca i32, align 4
  %7 = alloca ptr, align 8
  store ptr %0, ptr %4, align 8
  store i32 %1, ptr %5, align 4
  store i32 %2, ptr %6, align 4
  %8 = load ptr, ptr %4, align 8
  %9 = getelementptr inbounds %class.SamplePriorityQueue, ptr %8, i32 0, i32 0
  %10 = load ptr, ptr %9, align 8
  %11 = load i32, ptr %5, align 4
  %12 = sext i32 %11 to i64
  %13 = getelementptr inbounds ptr, ptr %10, i64 %12
  %14 = load ptr, ptr %13, align 8
  store ptr %14, ptr %7, align 8
  %15 = getelementptr inbounds %class.SamplePriorityQueue, ptr %8, i32 0, i32 0
  %16 = load ptr, ptr %15, align 8
  %17 = load i32, ptr %6, align 4
  %18 = sext i32 %17 to i64
  %19 = getelementptr inbounds ptr, ptr %16, i64 %18
  %20 = load ptr, ptr %19, align 8
  %21 = getelementptr inbounds %class.SamplePriorityQueue, ptr %8, i32 0, i32 0
  %22 = load ptr, ptr %21, align 8
  %23 = load i32, ptr %5, align 4
  %24 = sext i32 %23 to i64
  %25 = getelementptr inbounds ptr, ptr %22, i64 %24
  store ptr %20, ptr %25, align 8
  %26 = load ptr, ptr %7, align 8
  %27 = getelementptr inbounds %class.SamplePriorityQueue, ptr %8, i32 0, i32 0
  %28 = load ptr, ptr %27, align 8
  %29 = load i32, ptr %6, align 4
  %30 = sext i32 %29 to i64
  %31 = getelementptr inbounds ptr, ptr %28, i64 %30
  store ptr %26, ptr %31, align 8
  %32 = getelementptr inbounds %class.SamplePriorityQueue, ptr %8, i32 0, i32 0
  %33 = load ptr, ptr %32, align 8
  %34 = load i32, ptr %5, align 4
  %35 = sext i32 %34 to i64
  %36 = getelementptr inbounds ptr, ptr %33, i64 %35
  %37 = load ptr, ptr %36, align 8
  %38 = load i32, ptr %5, align 4
  call void @_ZN12ObjectSample9set_indexEi(ptr noundef nonnull align 8 dereferenceable(117) %37, i32 noundef %38)
  %39 = getelementptr inbounds %class.SamplePriorityQueue, ptr %8, i32 0, i32 0
  %40 = load ptr, ptr %39, align 8
  %41 = load i32, ptr %6, align 4
  %42 = sext i32 %41 to i64
  %43 = getelementptr inbounds ptr, ptr %40, i64 %42
  %44 = load ptr, ptr %43, align 8
  %45 = load i32, ptr %6, align 4
  call void @_ZN12ObjectSample9set_indexEi(ptr noundef nonnull align 8 dereferenceable(117) %44, i32 noundef %45)
  ret void
}

; Function Attrs: mustprogress nounwind uwtable
define internal noundef i32 @_ZL4lefti(i32 noundef %0) #1 {
  %2 = alloca i32, align 4
  store i32 %0, ptr %2, align 4
  %3 = load i32, ptr %2, align 4
  %4 = mul nsw i32 2, %3
  %5 = add nsw i32 %4, 1
  ret i32 %5
}

; Function Attrs: mustprogress nounwind uwtable
define linkonce_odr hidden noundef i64 @_ZNK12ObjectSample4spanEv(ptr noundef nonnull align 8 dereferenceable(117) %0) #1 comdat align 2 {
  %2 = alloca ptr, align 8
  store ptr %0, ptr %2, align 8
  %3 = load ptr, ptr %2, align 8
  %4 = getelementptr inbounds %class.ObjectSample, ptr %3, i32 0, i32 10
  %5 = load i64, ptr %4, align 8
  ret i64 %5
}

; Function Attrs: mustprogress nounwind uwtable
define internal noundef i32 @_ZL5righti(i32 noundef %0) #1 {
  %2 = alloca i32, align 4
  store i32 %0, ptr %2, align 4
  %3 = load i32, ptr %2, align 4
  %4 = mul nsw i32 2, %3
  %5 = add nsw i32 %4, 2
  ret i32 %5
}

; Function Attrs: mustprogress nounwind uwtable
define hidden void @_ZN19SamplePriorityQueue8moveDownEi(ptr noundef nonnull align 8 dereferenceable(32) %0, i32 noundef %1) #1 align 2 {
  %3 = alloca ptr, align 8
  %4 = alloca i32, align 4
  %5 = alloca i32, align 4
  %6 = alloca i32, align 4
  %7 = alloca i32, align 4
  %8 = alloca i32, align 4
  store ptr %0, ptr %3, align 8
  store i32 %1, ptr %4, align 4
  %9 = load ptr, ptr %3, align 8
  br label %10

10:                                               ; preds = %90, %2
  store i32 -1, ptr %5, align 4
  %11 = load i32, ptr %4, align 4
  %12 = call noundef i32 @_ZL5righti(i32 noundef %11)
  store i32 %12, ptr %6, align 4
  %13 = load i32, ptr %6, align 4
  %14 = getelementptr inbounds %class.SamplePriorityQueue, ptr %9, i32 0, i32 2
  %15 = load i32, ptr %14, align 8
  %16 = icmp slt i32 %13, %15
  br i1 %16, label %17, label %56

17:                                               ; preds = %10
  %18 = getelementptr inbounds %class.SamplePriorityQueue, ptr %9, i32 0, i32 0
  %19 = load ptr, ptr %18, align 8
  %20 = load i32, ptr %6, align 4
  %21 = sext i32 %20 to i64
  %22 = getelementptr inbounds ptr, ptr %19, i64 %21
  %23 = load ptr, ptr %22, align 8
  %24 = call noundef i64 @_ZNK12ObjectSample4spanEv(ptr noundef nonnull align 8 dereferenceable(117) %23)
  %25 = getelementptr inbounds %class.SamplePriorityQueue, ptr %9, i32 0, i32 0
  %26 = load ptr, ptr %25, align 8
  %27 = load i32, ptr %4, align 4
  %28 = sext i32 %27 to i64
  %29 = getelementptr inbounds ptr, ptr %26, i64 %28
  %30 = load ptr, ptr %29, align 8
  %31 = call noundef i64 @_ZNK12ObjectSample4spanEv(ptr noundef nonnull align 8 dereferenceable(117) %30)
  %32 = icmp ult i64 %24, %31
  br i1 %32, label %33, label %56

33:                                               ; preds = %17
  %34 = load i32, ptr %4, align 4
  %35 = call noundef i32 @_ZL4lefti(i32 noundef %34)
  store i32 %35, ptr %7, align 4
  %36 = getelementptr inbounds %class.SamplePriorityQueue, ptr %9, i32 0, i32 0
  %37 = load ptr, ptr %36, align 8
  %38 = load i32, ptr %7, align 4
  %39 = sext i32 %38 to i64
  %40 = getelementptr inbounds ptr, ptr %37, i64 %39
  %41 = load ptr, ptr %40, align 8
  %42 = call noundef i64 @_ZNK12ObjectSample4spanEv(ptr noundef nonnull align 8 dereferenceable(117) %41)
  %43 = getelementptr inbounds %class.SamplePriorityQueue, ptr %9, i32 0, i32 0
  %44 = load ptr, ptr %43, align 8
  %45 = load i32, ptr %6, align 4
  %46 = sext i32 %45 to i64
  %47 = getelementptr inbounds ptr, ptr %44, i64 %46
  %48 = load ptr, ptr %47, align 8
  %49 = call noundef i64 @_ZNK12ObjectSample4spanEv(ptr noundef nonnull align 8 dereferenceable(117) %48)
  %50 = icmp ult i64 %42, %49
  br i1 %50, label %51, label %53

51:                                               ; preds = %33
  %52 = load i32, ptr %7, align 4
  store i32 %52, ptr %5, align 4
  br label %55

53:                                               ; preds = %33
  %54 = load i32, ptr %6, align 4
  store i32 %54, ptr %5, align 4
  br label %55

55:                                               ; preds = %53, %51
  br label %82

56:                                               ; preds = %17, %10
  %57 = load i32, ptr %4, align 4
  %58 = call noundef i32 @_ZL4lefti(i32 noundef %57)
  store i32 %58, ptr %8, align 4
  %59 = load i32, ptr %8, align 4
  %60 = getelementptr inbounds %class.SamplePriorityQueue, ptr %9, i32 0, i32 2
  %61 = load i32, ptr %60, align 8
  %62 = icmp slt i32 %59, %61
  br i1 %62, label %63, label %81

63:                                               ; preds = %56
  %64 = getelementptr inbounds %class.SamplePriorityQueue, ptr %9, i32 0, i32 0
  %65 = load ptr, ptr %64, align 8
  %66 = load i32, ptr %8, align 4
  %67 = sext i32 %66 to i64
  %68 = getelementptr inbounds ptr, ptr %65, i64 %67
  %69 = load ptr, ptr %68, align 8
  %70 = call noundef i64 @_ZNK12ObjectSample4spanEv(ptr noundef nonnull align 8 dereferenceable(117) %69)
  %71 = getelementptr inbounds %class.SamplePriorityQueue, ptr %9, i32 0, i32 0
  %72 = load ptr, ptr %71, align 8
  %73 = load i32, ptr %4, align 4
  %74 = sext i32 %73 to i64
  %75 = getelementptr inbounds ptr, ptr %72, i64 %74
  %76 = load ptr, ptr %75, align 8
  %77 = call noundef i64 @_ZNK12ObjectSample4spanEv(ptr noundef nonnull align 8 dereferenceable(117) %76)
  %78 = icmp ult i64 %70, %77
  br i1 %78, label %79, label %81

79:                                               ; preds = %63
  %80 = load i32, ptr %8, align 4
  store i32 %80, ptr %5, align 4
  br label %81

81:                                               ; preds = %79, %63, %56
  br label %82

82:                                               ; preds = %81, %55
  %83 = load i32, ptr %5, align 4
  %84 = icmp sge i32 %83, 0
  br i1 %84, label %85, label %88

85:                                               ; preds = %82
  %86 = load i32, ptr %4, align 4
  %87 = load i32, ptr %5, align 4
  call void @_ZN19SamplePriorityQueue4swapEii(ptr noundef nonnull align 8 dereferenceable(32) %9, i32 noundef %86, i32 noundef %87)
  br label %88

88:                                               ; preds = %85, %82
  %89 = load i32, ptr %5, align 4
  store i32 %89, ptr %4, align 4
  br label %90

90:                                               ; preds = %88
  %91 = load i32, ptr %4, align 4
  %92 = icmp sge i32 %91, 0
  br i1 %92, label %10, label %93, !llvm.loop !8

93:                                               ; preds = %90
  ret void
}