; Function Attrs: mustprogress nofree norecurse nosync nounwind memory(readwrite, inaccessiblemem: none) uwtable
define hidden void @_ZN19SamplePriorityQueue8moveDownEi(ptr nocapture noundef nonnull readonly align 8 dereferenceable(32) %0, i32 noundef %1) local_unnamed_addr #3 align 2 {
  %3 = getelementptr inbounds i8, ptr %0, i64 16
  br label %4

4:                                                ; preds = %48, %2
  %.0 = phi i32 [ %1, %2 ], [ %.019, %48 ]
  %5 = shl nsw i32 %.0, 1
  %6 = add nsw i32 %5, 2
  %7 = load i32, ptr %3, align 8
  %8 = icmp slt i32 %6, %7
  br i1 %8, label %9, label %30

9:                                                ; preds = %4
  %10 = load ptr, ptr %0, align 8
  %11 = sext i32 %6 to i64
  %12 = getelementptr inbounds ptr, ptr %10, i64 %11
  %13 = load ptr, ptr %12, align 8
  %14 = getelementptr inbounds i8, ptr %13, i64 88
  %15 = load i64, ptr %14, align 8
  %16 = sext i32 %.0 to i64
  %17 = getelementptr inbounds ptr, ptr %10, i64 %16
  %18 = load ptr, ptr %17, align 8
  %19 = getelementptr inbounds i8, ptr %18, i64 88
  %20 = load i64, ptr %19, align 8
  %21 = icmp ult i64 %15, %20
  br i1 %21, label %22, label %30

22:                                               ; preds = %9
  %23 = or disjoint i32 %5, 1
  %24 = sext i32 %23 to i64
  %25 = getelementptr inbounds ptr, ptr %10, i64 %24
  %26 = load ptr, ptr %25, align 8
  %27 = getelementptr inbounds i8, ptr %26, i64 88
  %28 = load i64, ptr %27, align 8
  %29 = icmp ult i64 %28, %15
  %. = select i1 %29, i32 %23, i32 %6
  br label %select.unfold

30:                                               ; preds = %9, %4
  %31 = or disjoint i32 %5, 1
  %32 = icmp slt i32 %31, %7
  br i1 %32, label %33, label %.critedge

33:                                               ; preds = %30
  %34 = load ptr, ptr %0, align 8
  %35 = sext i32 %31 to i64
  %36 = getelementptr inbounds ptr, ptr %34, i64 %35
  %37 = load ptr, ptr %36, align 8
  %38 = getelementptr inbounds i8, ptr %37, i64 88
  %39 = load i64, ptr %38, align 8
  %40 = sext i32 %.0 to i64
  %41 = getelementptr inbounds ptr, ptr %34, i64 %40
  %42 = load ptr, ptr %41, align 8
  %43 = getelementptr inbounds i8, ptr %42, i64 88
  %44 = load i64, ptr %43, align 8
  %45 = icmp ult i64 %39, %44
  br i1 %45, label %select.unfold, label %.critedge

select.unfold:                                    ; preds = %33, %22
  %46 = phi ptr [ %10, %22 ], [ %34, %33 ]
  %.019 = phi i32 [ %., %22 ], [ %31, %33 ]
  %47 = icmp sgt i32 %.019, -1
  br i1 %47, label %48, label %.critedge

48:                                               ; preds = %select.unfold
  %49 = sext i32 %.0 to i64
  %50 = getelementptr inbounds ptr, ptr %46, i64 %49
  %51 = load ptr, ptr %50, align 8
  %52 = zext nneg i32 %.019 to i64
  %53 = getelementptr inbounds ptr, ptr %46, i64 %52
  %54 = load ptr, ptr %53, align 8
  store ptr %54, ptr %50, align 8
  %55 = load ptr, ptr %0, align 8
  %56 = getelementptr inbounds ptr, ptr %55, i64 %52
  store ptr %51, ptr %56, align 8
  %57 = load ptr, ptr %0, align 8
  %58 = getelementptr inbounds ptr, ptr %57, i64 %49
  %59 = load ptr, ptr %58, align 8
  %60 = getelementptr inbounds i8, ptr %59, i64 112
  store i32 %.0, ptr %60, align 8
  %61 = load ptr, ptr %0, align 8
  %62 = getelementptr inbounds ptr, ptr %61, i64 %52
  %63 = load ptr, ptr %62, align 8
  %64 = getelementptr inbounds i8, ptr %63, i64 112
  store i32 %.019, ptr %64, align 8
  br label %4, !llvm.loop !8

.critedge:                                        ; preds = %33, %30, %select.unfold
  ret void
}